target datalayout = "e-m:e-p270:32:32-p271:32:32-p272:64:64-i64:64-i128:128-f80:128-n8:16:32:64-S128"
target triple = "x86_64-pc-linux-gnu"

%"class.boost::json::storage_ptr" = type { i64 }
%"class.boost::json::detail::stack" = type { %"class.boost::json::storage_ptr", i64, i64, ptr, ptr, ptr }
%"class.boost::json::serializer" = type <{ %"struct.boost::json::detail::writer.base", [4 x i8], ptr, ptr, i8, [7 x i8] }>
%"struct.boost::json::detail::writer.base" = type <{ %"class.boost::json::detail::stack", %"struct.boost::json::serialize_options", [7 x i8], %"class.boost::json::detail::const_stream", ptr, [28 x i8] }>
%"struct.boost::json::serialize_options" = type { i8 }
%"class.boost::json::detail::const_stream" = type { ptr, ptr }
%"struct.boost::json::detail::writer" = type <{ %"class.boost::json::detail::stack", %"struct.boost::json::serialize_options", [7 x i8], %"class.boost::json::detail::const_stream", ptr, [28 x i8], [4 x i8] }>
%"struct.boost::json::detail::stack::non_trivial" = type { ptr, ptr, i64 }

; Function Attrs: mustprogress nounwind uwtable
define noundef ptr @_ZN5boost4json6detail5stack11non_trivialIvE7destroyEv(ptr noundef nonnull align 8 dereferenceable(24) %0) #2 align 2 personality ptr @__gxx_personality_v0 {
  %2 = alloca ptr, align 8
  %3 = alloca ptr, align 8
  store ptr %0, ptr %2, align 8, !tbaa !3
  %4 = load ptr, ptr %2, align 8
  call void @llvm.lifetime.start.p0(i64 8, ptr %3) #10
  %5 = getelementptr inbounds nuw %"struct.boost::json::detail::stack::non_trivial", ptr %4, i32 0, i32 1
  %6 = load ptr, ptr %5, align 8, !tbaa !269
  store ptr %6, ptr %3, align 8, !tbaa !3
  %7 = getelementptr inbounds nuw %"struct.boost::json::detail::stack::non_trivial", ptr %4, i32 0, i32 0
  %8 = load ptr, ptr %7, align 8, !tbaa !271
  %9 = invoke noundef ptr %8(ptr noundef %4, ptr noundef null)
          to label %10 unwind label %12

10:                                               ; preds = %1
  %11 = load ptr, ptr %3, align 8, !tbaa !3
  call void @llvm.lifetime.end.p0(i64 8, ptr %3) #10
  ret ptr %11

12:                                               ; preds = %1
  %13 = landingpad { ptr, i32 }
          catch ptr null
  %14 = extractvalue { ptr, i32 } %13, 0
  call void @__clang_call_terminate(ptr %14) #34
  unreachable
}

; Function Attrs: mustprogress nounwind uwtable
define void @_ZN5boost4json6detail5stack5clearEv(ptr noundef nonnull align 8 dereferenceable(48) %0) #2 align 2 {
  %2 = alloca ptr, align 8
  store ptr %0, ptr %2, align 8, !tbaa !3
  %3 = load ptr, ptr %2, align 8
  br label %4

4:                                                ; preds = %8, %1
  %5 = getelementptr inbounds nuw %"class.boost::json::detail::stack", ptr %3, i32 0, i32 3
  %6 = load ptr, ptr %5, align 8, !tbaa !222
  %7 = icmp ne ptr %6, null
  br i1 %7, label %8, label %13

8:                                                ; preds = %4
  %9 = getelementptr inbounds nuw %"class.boost::json::detail::stack", ptr %3, i32 0, i32 3
  %10 = load ptr, ptr %9, align 8, !tbaa !222
  %11 = call noundef ptr @_ZN5boost4json6detail5stack11non_trivialIvE7destroyEv(ptr noundef nonnull align 8 dereferenceable(24) %10) #10
  %12 = getelementptr inbounds nuw %"class.boost::json::detail::stack", ptr %3, i32 0, i32 3
  store ptr %11, ptr %12, align 8, !tbaa !222
  br label %4, !llvm.loop !223

13:                                               ; preds = %4
  %14 = getelementptr inbounds nuw %"class.boost::json::detail::stack", ptr %3, i32 0, i32 2
  store i64 0, ptr %14, align 8, !tbaa !224
  ret void
}

; Function Attrs: mustprogress nounwind uwtable
define void @_ZN5boost4json10serializer5resetEDn(ptr noundef nonnull align 8 dereferenceable(129) %0, ptr %1) #2 align 2 {
  %3 = alloca ptr, align 8
  %4 = alloca ptr, align 8
  store ptr %0, ptr %3, align 8, !tbaa !3
  store ptr %1, ptr %4, align 8, !tbaa !89
  %5 = load ptr, ptr %3, align 8
  %6 = getelementptr inbounds nuw %"struct.boost::json::detail::writer", ptr %5, i32 0, i32 4
  store ptr null, ptr %6, align 8, !tbaa !193
  %7 = getelementptr inbounds nuw %"class.boost::json::serializer", ptr %5, i32 0, i32 2
  store ptr @_ZN5boost4json6detail10write_implIDnLb1EEEbRNS1_6writerERNS1_6streamE, ptr %7, align 8, !tbaa !191
  %8 = getelementptr inbounds nuw %"class.boost::json::serializer", ptr %5, i32 0, i32 3
  store ptr @_ZN5boost4json6detail10write_implIDnLb0EEEbRNS1_6writerERNS1_6streamE, ptr %8, align 8, !tbaa !192
  %9 = getelementptr inbounds nuw %"struct.boost::json::detail::writer", ptr %5, i32 0, i32 0
  call void @_ZN5boost4json6detail5stack5clearEv(ptr noundef nonnull align 8 dereferenceable(48) %9) #10
  %10 = getelementptr inbounds nuw %"class.boost::json::serializer", ptr %5, i32 0, i32 4
  store i8 0, ptr %10, align 8, !tbaa !186
  ret void
}