; Function Attrs: mustprogress nounwind uwtable
define void @_ZN5boost4json10serializer5resetEDn(ptr nocapture noundef nonnull align 8 dereferenceable(129) %0, ptr nocapture readnone %1) local_unnamed_addr #7 align 2 personality ptr @__gxx_personality_v0 {
  %3 = getelementptr inbounds nuw i8, ptr %0, i64 72
  store ptr null, ptr %3, align 8, !tbaa !339
  %4 = getelementptr inbounds nuw i8, ptr %0, i64 112
  store ptr @_ZN5boost4json6detail10write_implIDnLb1EEEbRNS1_6writerERNS1_6streamE, ptr %4, align 8, !tbaa !334
  %5 = getelementptr inbounds nuw i8, ptr %0, i64 120
  store ptr @_ZN5boost4json6detail10write_implIDnLb0EEEbRNS1_6writerERNS1_6streamE, ptr %5, align 8, !tbaa !340
  %6 = getelementptr inbounds nuw i8, ptr %0, i64 24
  %7 = load ptr, ptr %6, align 8, !tbaa !185
  %.not1.i = icmp eq ptr %7, null
  br i1 %.not1.i, label %_ZN5boost4json6detail5stack5clearEv.exit, label %.lr.ph.i

.lr.ph.i:                                         ; preds = %2, %_ZN5boost4json6detail5stack11non_trivialIvE7destroyEv.exit.i
  %8 = phi ptr [ %10, %_ZN5boost4json6detail5stack11non_trivialIvE7destroyEv.exit.i ], [ %7, %2 ]
  %9 = getelementptr inbounds nuw i8, ptr %8, i64 8
  %10 = load ptr, ptr %9, align 8, !tbaa !186
  %11 = load ptr, ptr %8, align 8, !tbaa !188
  %12 = invoke noundef ptr %11(ptr noundef nonnull align 8 dereferenceable(24) %8, ptr noundef null)
          to label %_ZN5boost4json6detail5stack11non_trivialIvE7destroyEv.exit.i unwind label %13

13:                                               ; preds = %.lr.ph.i
  %14 = landingpad { ptr, i32 }
          catch ptr null
  %15 = extractvalue { ptr, i32 } %14, 0
  tail call void @__clang_call_terminate(ptr %15) #50
  unreachable

_ZN5boost4json6detail5stack11non_trivialIvE7destroyEv.exit.i: ; preds = %.lr.ph.i
  store ptr %10, ptr %6, align 8, !tbaa !185
  %.not.i = icmp eq ptr %10, null
  br i1 %.not.i, label %_ZN5boost4json6detail5stack5clearEv.exit, label %.lr.ph.i, !llvm.loop !189

_ZN5boost4json6detail5stack5clearEv.exit:         ; preds = %_ZN5boost4json6detail5stack11non_trivialIvE7destroyEv.exit.i, %2
  %16 = getelementptr inbounds nuw i8, ptr %0, i64 16
  store i64 0, ptr %16, align 8, !tbaa !190
  %17 = getelementptr inbounds nuw i8, ptr %0, i64 128
  store i8 0, ptr %17, align 8, !tbaa !341
  ret void
}